target datalayout = "e-m:e-p270:32:32-p271:32:32-p272:64:64-i64:64-i128:128-f80:128-n8:16:32:64-S128"
target triple = "x86_64-pc-linux-gnu"

%class.UPerfTest = type { ptr, i32, ptr, ptr, ptr, ptr, ptr, i8, ptr, ptr, i32, ptr, i32, i8, ptr, i32, i8, i8, i32, i32, i32, ptr, ptr, ptr }
%struct.ULine = type { ptr, i32 }

@stderr = external global ptr, align 8
@.str.3 = private unnamed_addr constant [32 x i8] c"Out of memory reading line %d.\0A\00", align 1

; Function Attrs: inlinehint mustprogress nounwind uwtable
define internal noundef signext i8 @_ZL9U_FAILURE10UErrorCode(i32 noundef %0) #8 {
  %2 = alloca i32, align 4
  store i32 %0, ptr %2, align 4, !tbaa !48
  %3 = load i32, ptr %2, align 4, !tbaa !48
  %4 = icmp sgt i32 %3, 0
  %5 = zext i1 %4 to i8
  ret i8 %5
}

; Function Attrs: mustprogress uwtable
define noundef ptr @_ZN9UPerfTest8getLinesER10UErrorCode(ptr noundef nonnull align 8 dereferenceable(160) %0, ptr noundef nonnull align 4 dereferenceable(4) %1) #2 align 2 {
  %3 = alloca ptr, align 8
  %4 = alloca ptr, align 8
  %5 = alloca ptr, align 8
  %6 = alloca i32, align 4
  %7 = alloca ptr, align 8
  %8 = alloca i32, align 4
  %9 = alloca ptr, align 8
  %10 = alloca i32, align 4
  store ptr %0, ptr %4, align 8, !tbaa !8
  store ptr %1, ptr %5, align 8, !tbaa !15
  %11 = load ptr, ptr %4, align 8
  %12 = load ptr, ptr %5, align 8, !tbaa !15
  %13 = load i32, ptr %12, align 4, !tbaa !48
  %14 = call noundef signext i8 @_ZL9U_FAILURE10UErrorCode(i32 noundef %13)
  %15 = icmp ne i8 %14, 0
  br i1 %15, label %16, label %17

16:                                               ; preds = %2
  store ptr null, ptr %3, align 8
  br label %129

17:                                               ; preds = %2
  %18 = getelementptr inbounds nuw %class.UPerfTest, ptr %11, i32 0, i32 11
  %19 = load ptr, ptr %18, align 8, !tbaa !31
  %20 = icmp ne ptr %19, null
  br i1 %20, label %21, label %24

21:                                               ; preds = %17
  %22 = getelementptr inbounds nuw %class.UPerfTest, ptr %11, i32 0, i32 11
  %23 = load ptr, ptr %22, align 8, !tbaa !31
  store ptr %23, ptr %3, align 8
  br label %129

24:                                               ; preds = %17
  %25 = call noalias noundef nonnull ptr @_Znam(i64 noundef 640000) #20
  %26 = getelementptr inbounds nuw %class.UPerfTest, ptr %11, i32 0, i32 11
  store ptr %25, ptr %26, align 8, !tbaa !31
  call void @llvm.lifetime.start.p0(i64 4, ptr %6) #17
  store i32 40000, ptr %6, align 4, !tbaa !10
  %27 = getelementptr inbounds nuw %class.UPerfTest, ptr %11, i32 0, i32 12
  store i32 0, ptr %27, align 8, !tbaa !32
  call void @llvm.lifetime.start.p0(i64 8, ptr %7) #17
  store ptr null, ptr %7, align 8, !tbaa !52
  call void @llvm.lifetime.start.p0(i64 4, ptr %8) #17
  store i32 0, ptr %8, align 4, !tbaa !10
  br label %28

28:                                               ; preds = %124, %24
  %29 = getelementptr inbounds nuw %class.UPerfTest, ptr %11, i32 0, i32 5
  %30 = load ptr, ptr %29, align 8, !tbaa !26
  %31 = load ptr, ptr %5, align 8, !tbaa !15
  %32 = call ptr @ucbuf_readline(ptr noundef %30, ptr noundef %8, ptr noundef %31)
  store ptr %32, ptr %7, align 8, !tbaa !52
  %33 = load ptr, ptr %7, align 8, !tbaa !52
  %34 = icmp eq ptr %33, null
  br i1 %34, label %40, label %35

35:                                               ; preds = %28
  %36 = load ptr, ptr %5, align 8, !tbaa !15
  %37 = load i32, ptr %36, align 4, !tbaa !48
  %38 = call noundef signext i8 @_ZL9U_FAILURE10UErrorCode(i32 noundef %37)
  %39 = icmp ne i8 %38, 0
  br i1 %39, label %40, label %41

40:                                               ; preds = %35, %28
  br label %125

41:                                               ; preds = %35
  %42 = load i32, ptr %8, align 4, !tbaa !10
  %43 = sext i32 %42 to i64
  %44 = call { i64, i1 } @llvm.umul.with.overflow.i64(i64 %43, i64 2)
  %45 = extractvalue { i64, i1 } %44, 1
  %46 = extractvalue { i64, i1 } %44, 0
  %47 = select i1 %45, i64 -1, i64 %46
  %48 = call noalias noundef nonnull ptr @_Znam(i64 noundef %47) #20
  %49 = getelementptr inbounds nuw %class.UPerfTest, ptr %11, i32 0, i32 11
  %50 = load ptr, ptr %49, align 8, !tbaa !31
  %51 = getelementptr inbounds nuw %class.UPerfTest, ptr %11, i32 0, i32 12
  %52 = load i32, ptr %51, align 8, !tbaa !32
  %53 = sext i32 %52 to i64
  %54 = getelementptr inbounds %struct.ULine, ptr %50, i64 %53
  %55 = getelementptr inbounds nuw %struct.ULine, ptr %54, i32 0, i32 0
  store ptr %48, ptr %55, align 8, !tbaa !53
  %56 = load i32, ptr %8, align 4, !tbaa !10
  %57 = getelementptr inbounds nuw %class.UPerfTest, ptr %11, i32 0, i32 11
  %58 = load ptr, ptr %57, align 8, !tbaa !31
  %59 = getelementptr inbounds nuw %class.UPerfTest, ptr %11, i32 0, i32 12
  %60 = load i32, ptr %59, align 8, !tbaa !32
  %61 = sext i32 %60 to i64
  %62 = getelementptr inbounds %struct.ULine, ptr %58, i64 %61
  %63 = getelementptr inbounds nuw %struct.ULine, ptr %62, i32 0, i32 1
  store i32 %56, ptr %63, align 8, !tbaa !55
  %64 = getelementptr inbounds nuw %class.UPerfTest, ptr %11, i32 0, i32 11
  %65 = load ptr, ptr %64, align 8, !tbaa !31
  %66 = getelementptr inbounds nuw %class.UPerfTest, ptr %11, i32 0, i32 12
  %67 = load i32, ptr %66, align 8, !tbaa !32
  %68 = sext i32 %67 to i64
  %69 = getelementptr inbounds %struct.ULine, ptr %65, i64 %68
  %70 = getelementptr inbounds nuw %struct.ULine, ptr %69, i32 0, i32 0
  %71 = load ptr, ptr %70, align 8, !tbaa !53
  %72 = load ptr, ptr %7, align 8, !tbaa !52
  %73 = load i32, ptr %8, align 4, !tbaa !10
  %74 = mul nsw i32 %73, 2
  %75 = sext i32 %74 to i64
  call void @llvm.memcpy.p0.p0.i64(ptr align 2 %71, ptr align 2 %72, i64 %75, i1 false)
  %76 = getelementptr inbounds nuw %class.UPerfTest, ptr %11, i32 0, i32 12
  %77 = load i32, ptr %76, align 8, !tbaa !32
  %78 = add nsw i32 %77, 1
  store i32 %78, ptr %76, align 8, !tbaa !32
  store i32 0, ptr %8, align 4, !tbaa !10
  %79 = getelementptr inbounds nuw %class.UPerfTest, ptr %11, i32 0, i32 12
  %80 = load i32, ptr %79, align 8, !tbaa !32
  %81 = load i32, ptr %6, align 4, !tbaa !10
  %82 = icmp sge i32 %80, %81
  br i1 %82, label %83, label %124

83:                                               ; preds = %41
  %84 = load i32, ptr %6, align 4, !tbaa !10
  %85 = add nsw i32 %84, 40000
  store i32 %85, ptr %6, align 4, !tbaa !10
  call void @llvm.lifetime.start.p0(i64 8, ptr %9) #17
  %86 = load i32, ptr %6, align 4, !tbaa !10
  %87 = sext i32 %86 to i64
  %88 = call { i64, i1 } @llvm.umul.with.overflow.i64(i64 %87, i64 16)
  %89 = extractvalue { i64, i1 } %88, 1
  %90 = extractvalue { i64, i1 } %88, 0
  %91 = select i1 %89, i64 -1, i64 %90
  %92 = call noalias noundef nonnull ptr @_Znam(i64 noundef %91) #20
  store ptr %92, ptr %9, align 8, !tbaa !56
  %93 = load ptr, ptr %9, align 8, !tbaa !56
  %94 = icmp eq ptr %93, null
  br i1 %94, label %95, label %106

95:                                               ; preds = %83
  %96 = load ptr, ptr @stderr, align 8, !tbaa !57
  %97 = getelementptr inbounds nuw %class.UPerfTest, ptr %11, i32 0, i32 12
  %98 = load i32, ptr %97, align 8, !tbaa !32
  %99 = call i32 (ptr, ptr, ...) @fprintf(ptr noundef %96, ptr noundef @.str.3, i32 noundef %98) #17
  %100 = load ptr, ptr %5, align 8, !tbaa !15
  store i32 7, ptr %100, align 4, !tbaa !48
  %101 = getelementptr inbounds nuw %class.UPerfTest, ptr %11, i32 0, i32 11
  %102 = load ptr, ptr %101, align 8, !tbaa !31
  %103 = icmp eq ptr %102, null
  br i1 %103, label %105, label %104

104:                                              ; preds = %95
  call void @_ZdaPv(ptr noundef %102) #21
  br label %105

105:                                              ; preds = %104, %95
  store ptr null, ptr %3, align 8
  store i32 1, ptr %10, align 4
  br label %121

106:                                              ; preds = %83
  %107 = load ptr, ptr %9, align 8, !tbaa !56
  %108 = getelementptr inbounds nuw %class.UPerfTest, ptr %11, i32 0, i32 11
  %109 = load ptr, ptr %108, align 8, !tbaa !31
  %110 = getelementptr inbounds nuw %class.UPerfTest, ptr %11, i32 0, i32 12
  %111 = load i32, ptr %110, align 8, !tbaa !32
  %112 = sext i32 %111 to i64
  %113 = mul i64 %112, 16
  call void @llvm.memcpy.p0.p0.i64(ptr align 8 %107, ptr align 8 %109, i64 %113, i1 false)
  %114 = getelementptr inbounds nuw %class.UPerfTest, ptr %11, i32 0, i32 11
  %115 = load ptr, ptr %114, align 8, !tbaa !31
  %116 = icmp eq ptr %115, null
  br i1 %116, label %118, label %117

117:                                              ; preds = %106
  call void @_ZdaPv(ptr noundef %115) #21
  br label %118

118:                                              ; preds = %117, %106
  %119 = load ptr, ptr %9, align 8, !tbaa !56
  %120 = getelementptr inbounds nuw %class.UPerfTest, ptr %11, i32 0, i32 11
  store ptr %119, ptr %120, align 8, !tbaa !31
  store i32 0, ptr %10, align 4
  br label %121

121:                                              ; preds = %118, %105
  call void @llvm.lifetime.end.p0(i64 8, ptr %9) #17
  %122 = load i32, ptr %10, align 4
  switch i32 %122, label %128 [
    i32 0, label %123
  ]

123:                                              ; preds = %121
  br label %124

124:                                              ; preds = %123, %41
  br label %28, !llvm.loop !59

125:                                              ; preds = %40
  %126 = getelementptr inbounds nuw %class.UPerfTest, ptr %11, i32 0, i32 11
  %127 = load ptr, ptr %126, align 8, !tbaa !31
  store ptr %127, ptr %3, align 8
  store i32 1, ptr %10, align 4
  br label %128

128:                                              ; preds = %125, %121
  call void @llvm.lifetime.end.p0(i64 4, ptr %8) #17
  call void @llvm.lifetime.end.p0(i64 8, ptr %7) #17
  call void @llvm.lifetime.end.p0(i64 4, ptr %6) #17
  br label %129

129:                                              ; preds = %128, %21, %16
  %130 = load ptr, ptr %3, align 8
  ret ptr %130
}