; Function Attrs: mustprogress uwtable
define noundef ptr @_ZN9UPerfTest8getLinesER10UErrorCode(ptr noundef nonnull align 8 captures(none) dereferenceable(160) %0, ptr noundef nonnull align 4 dereferenceable(4) %1) local_unnamed_addr #3 align 2 {
  %3 = alloca i32, align 4
  %4 = load i32, ptr %1, align 4, !tbaa !34
  %5 = icmp slt i32 %4, 1
  br i1 %5, label %6, label %49

6:                                                ; preds = %2
  %7 = getelementptr inbounds nuw i8, ptr %0, i64 88
  %8 = load ptr, ptr %7, align 8, !tbaa !25
  %.not21 = icmp eq ptr %8, null
  br i1 %.not21, label %9, label %49

9:                                                ; preds = %6
  %10 = tail call noalias noundef nonnull dereferenceable(640000) ptr @_Znam(i64 noundef 640000) #25
  store ptr %10, ptr %7, align 8, !tbaa !25
  %11 = getelementptr inbounds nuw i8, ptr %0, i64 96
  store i32 0, ptr %11, align 8, !tbaa !26
  call void @llvm.lifetime.start.p0(i64 4, ptr nonnull %3) #23
  store i32 0, ptr %3, align 4, !tbaa !41
  %12 = getelementptr inbounds nuw i8, ptr %0, i64 40
  %13 = load ptr, ptr %12, align 8, !tbaa !20
  %14 = call ptr @ucbuf_readline(ptr noundef %13, ptr noundef nonnull %3, ptr noundef nonnull %1)
  %15 = icmp ne ptr %14, null
  %16 = load i32, ptr %1, align 4
  %17 = icmp slt i32 %16, 1
  %or.cond25 = select i1 %15, i1 %17, i1 false
  br i1 %or.cond25, label %.lr.ph, label %._crit_edge

.lr.ph:                                           ; preds = %9, %42
  %18 = phi ptr [ %44, %42 ], [ %14, %9 ]
  %.01526 = phi i32 [ %.116, %42 ], [ 40000, %9 ]
  %19 = load i32, ptr %3, align 4, !tbaa !41
  %20 = sext i32 %19 to i64
  %21 = icmp slt i32 %19, 0
  %22 = shl nsw i64 %20, 1
  %23 = select i1 %21, i64 -1, i64 %22
  %24 = call noalias noundef nonnull ptr @_Znam(i64 noundef %23) #25
  %25 = load ptr, ptr %7, align 8, !tbaa !25
  %26 = load i32, ptr %11, align 8, !tbaa !26
  %27 = sext i32 %26 to i64
  %28 = getelementptr inbounds %struct.ULine, ptr %25, i64 %27
  store ptr %24, ptr %28, align 8, !tbaa !42
  %29 = getelementptr inbounds %struct.ULine, ptr %25, i64 %27, i32 1
  store i32 %19, ptr %29, align 8, !tbaa !44
  %30 = shl nsw i32 %19, 1
  %31 = sext i32 %30 to i64
  call void @llvm.memcpy.p0.p0.i64(ptr nonnull align 2 %24, ptr nonnull align 2 %18, i64 %31, i1 false)
  %32 = add nsw i32 %26, 1
  store i32 %32, ptr %11, align 8, !tbaa !26
  store i32 0, ptr %3, align 4, !tbaa !41
  %.not23 = icmp slt i32 %32, %.01526
  br i1 %.not23, label %42, label %33

33:                                               ; preds = %.lr.ph
  %34 = add nsw i32 %.01526, 40000
  %35 = sext i32 %34 to i64
  %36 = icmp slt i32 %.01526, -40000
  %37 = shl nsw i64 %35, 4
  %38 = select i1 %36, i64 -1, i64 %37
  %39 = call noalias noundef nonnull ptr @_Znam(i64 noundef %38) #25
  %40 = sext i32 %32 to i64
  %41 = shl nsw i64 %40, 4
  call void @llvm.memcpy.p0.p0.i64(ptr nonnull align 8 %39, ptr nonnull align 8 %25, i64 %41, i1 false)
  call void @_ZdaPv(ptr noundef nonnull %25) #26
  store ptr %39, ptr %7, align 8, !tbaa !25
  br label %42

42:                                               ; preds = %33, %.lr.ph
  %.116 = phi i32 [ %34, %33 ], [ %.01526, %.lr.ph ]
  %43 = load ptr, ptr %12, align 8, !tbaa !20
  %44 = call ptr @ucbuf_readline(ptr noundef %43, ptr noundef nonnull %3, ptr noundef nonnull %1)
  %45 = icmp ne ptr %44, null
  %46 = load i32, ptr %1, align 4
  %47 = icmp slt i32 %46, 1
  %or.cond = select i1 %45, i1 %47, i1 false
  br i1 %or.cond, label %.lr.ph, label %._crit_edge, !llvm.loop !45

._crit_edge:                                      ; preds = %42, %9
  %48 = load ptr, ptr %7, align 8, !tbaa !25
  call void @llvm.lifetime.end.p0(i64 4, ptr nonnull %3) #23
  br label %49

49:                                               ; preds = %6, %2, %._crit_edge
  %.014 = phi ptr [ %48, %._crit_edge ], [ null, %2 ], [ %8, %6 ]
  ret ptr %.014
}